target datalayout = "e-m:e-p270:32:32-p271:32:32-p272:64:64-i64:64-i128:128-f80:128-n8:16:32:64-S128"
target triple = "x86_64-pc-linux-gnu"

@proto_register_aol.ett = internal global [2 x ptr] [ptr @ett_aol, ptr @ett_aol_data], align 16
@.str.76 = private unnamed_addr constant [15 x i8] c"America Online\00", align 1
@.str.77 = private unnamed_addr constant [4 x i8] c"AOL\00", align 1
@.str.78 = private unnamed_addr constant [4 x i8] c"aol\00", align 1
@proto_aol = internal global i32 0, align 4
@.str.79 = private unnamed_addr constant [10 x i8] c"desegment\00", align 1
@.str.80 = private unnamed_addr constant [55 x i8] c"Reassemble AOL messages spanning multiple TCP segments\00", align 1
@.str.81 = private unnamed_addr constant [204 x i8] c"Whether the AOL dissector should reassemble messages spanning multiple TCP segments. To use this option, you must also enable \22Allow subdissectors to reassemble TCP streams\22 in the TCP protocol settings.\00", align 1
@aol_desegment = internal global i8 1, align 1
@aol_handle = internal global ptr null, align 8

; Function Attrs: null_pointer_is_valid sspstrong uwtable
define hidden void @proto_register_aol() #0 {
  %1 = alloca ptr, align 8
  %2 = alloca ptr, align 8
  call void @llvm.lifetime.start.p0(i64 8, ptr %1) #3
  call void @llvm.lifetime.start.p0(i64 8, ptr %2) #3
  %3 = call i32 @proto_register_protocol(ptr noundef @.str.76, ptr noundef @.str.77, ptr noundef @.str.78)
  store i32 %3, ptr @proto_aol, align 4
  %4 = load i32, ptr @proto_aol, align 4
  call void @proto_register_field_array(i32 noundef %4, ptr noundef @proto_register_aol.hf, i32 noundef 36)
  call void @proto_register_subtree_array(ptr noundef @proto_register_aol.ett, i32 noundef 2)
  %5 = load i32, ptr @proto_aol, align 4
  %6 = call ptr @expert_register_protocol(i32 noundef %5)
  store ptr %6, ptr %2, align 8
  %7 = load ptr, ptr %2, align 8
  call void @expert_register_field_array(ptr noundef %7, ptr noundef @proto_register_aol.ei, i32 noundef 2)
  %8 = load i32, ptr @proto_aol, align 4
  %9 = call ptr @prefs_register_protocol(i32 noundef %8, ptr noundef null)
  store ptr %9, ptr %1, align 8
  %10 = load ptr, ptr %1, align 8
  call void @prefs_register_bool_preference(ptr noundef %10, ptr noundef @.str.79, ptr noundef @.str.80, ptr noundef @.str.81, ptr noundef @aol_desegment)
  %11 = load i32, ptr @proto_aol, align 4
  %12 = call ptr @register_dissector(ptr noundef @.str.78, ptr noundef @dissect_aol, i32 noundef %11)
  store ptr %12, ptr @aol_handle, align 8
  call void @llvm.lifetime.end.p0(i64 8, ptr %2) #3
  call void @llvm.lifetime.end.p0(i64 8, ptr %1) #3
  ret void
}