; Function Attrs: null_pointer_is_valid sspstrong uwtable
define hidden void @proto_register_aol() local_unnamed_addr #0 {
  %1 = tail call i32 @proto_register_protocol(ptr noundef nonnull @.str.76, ptr noundef nonnull @.str.77, ptr noundef nonnull @.str.78)
  store i32 %1, ptr @proto_aol, align 4
  tail call void @proto_register_field_array(i32 noundef %1, ptr noundef nonnull @proto_register_aol.hf, i32 noundef 36)
  tail call void @proto_register_subtree_array(ptr noundef nonnull @proto_register_aol.ett, i32 noundef 2)
  %2 = load i32, ptr @proto_aol, align 4
  %3 = tail call ptr @expert_register_protocol(i32 noundef %2)
  tail call void @expert_register_field_array(ptr noundef %3, ptr noundef nonnull @proto_register_aol.ei, i32 noundef 2)
  %4 = load i32, ptr @proto_aol, align 4
  %5 = tail call ptr @prefs_register_protocol(i32 noundef %4, ptr noundef null)
  tail call void @prefs_register_bool_preference(ptr noundef %5, ptr noundef nonnull @.str.79, ptr noundef nonnull @.str.80, ptr noundef nonnull @.str.81, ptr noundef nonnull @aol_desegment)
  %6 = load i32, ptr @proto_aol, align 4
  %7 = tail call ptr @register_dissector(ptr noundef nonnull @.str.78, ptr noundef nonnull @dissect_aol, i32 noundef %6)
  store ptr %7, ptr @aol_handle, align 8
  ret void
}